target datalayout = "e-m:e-p270:32:32-p271:32:32-p272:64:64-i64:64-i128:128-f80:128-n8:16:32:64-S128"
target triple = "x86_64-pc-linux-gnu"

%struct._generic_SUNLinearSolver = type { ptr, ptr, ptr }
%struct._generic_SUNLinearSolver_Ops = type { ptr, ptr, ptr, ptr, ptr, ptr, ptr, ptr, ptr, ptr, ptr, ptr, ptr, ptr, ptr }
%struct.IDAMemRec = type { ptr, double, ptr, ptr, i32, double, double, ptr, i32, i32, ptr, ptr, i32, i32, [6 x ptr], [6 x double], [6 x double], [6 x double], [6 x double], [6 x double], ptr, ptr, ptr, ptr, ptr, ptr, ptr, ptr, ptr, ptr, ptr, ptr, ptr, ptr, ptr, ptr, ptr, double, ptr, ptr, i32, i32, i32, i32, i32, i32, i32, i32, double, double, double, i32, double, i32, i32, i32, i32, i32, double, double, double, double, double, double, double, double, double, double, double, double, double, double, double, double, i32, i32, i32, i32, i64, double, double, double, double, double, double, double, double, double, i64, i64, i64, i64, i64, i64, i64, i64, i64, i64, i64, double, i32, i32, i32, i32, i32, ptr, i32, ptr, ptr, ptr, ptr, ptr, ptr, ptr, double, i32, ptr, i32, ptr, ptr, double, double, double, ptr, ptr, ptr, double, double, i32, i32, i64, ptr, i32, [6 x double], [5 x double], [6 x ptr], [6 x ptr] }
%struct._generic_N_Vector = type { ptr, ptr, ptr }
%struct._generic_N_Vector_Ops = type { ptr, ptr, ptr, ptr, ptr, ptr, ptr, ptr, ptr, ptr, ptr, ptr, ptr, ptr, ptr, ptr, ptr, ptr, ptr, ptr, ptr, ptr, ptr, ptr, ptr, ptr, ptr, ptr, ptr, ptr, ptr, ptr, ptr, ptr, ptr, ptr, ptr, ptr, ptr, ptr, ptr, ptr, ptr, ptr, ptr, ptr, ptr, ptr, ptr, ptr, ptr, ptr, ptr, ptr, ptr, ptr }
%struct.IDALsMemRec = type { i32, i32, i32, ptr, ptr, ptr, ptr, ptr, ptr, ptr, ptr, ptr, ptr, i32, double, double, double, i64, i64, i64, i64, i64, i64, i64, i64, i64, i64, i64, i64, i64, i64, double, i32, ptr, ptr, ptr, ptr, i32, ptr, ptr, ptr, ptr }

@.str = private unnamed_addr constant [112 x i8] c"generated/home/dtcxzyw/WorkSpace/Projects/compilers/llvm-opt-benchmark/bench/sundials/sundials/src/ida/ida_ls.c\00", align 1
@.str.1 = private unnamed_addr constant [27 x i8] c"Integrator memory is NULL.\00", align 1
@__func__.IDAGetLinWorkSpace = private unnamed_addr constant [19 x i8] c"IDAGetLinWorkSpace\00", align 1
@.str.30 = private unnamed_addr constant [30 x i8] c"Linear solver memory is NULL.\00", align 1

; Function Attrs: nounwind uwtable
define i32 @idaLs_AccessLMem(ptr noundef %0, ptr noundef %1, ptr noundef %2, ptr noundef %3) #0 {
  %5 = alloca i32, align 4
  %6 = alloca ptr, align 8
  %7 = alloca ptr, align 8
  %8 = alloca ptr, align 8
  %9 = alloca ptr, align 8
  store ptr %0, ptr %6, align 8, !tbaa !3
  store ptr %1, ptr %7, align 8, !tbaa !117
  store ptr %2, ptr %8, align 8, !tbaa !119
  store ptr %3, ptr %9, align 8, !tbaa !121
  %10 = load ptr, ptr %6, align 8, !tbaa !3
  %11 = icmp eq ptr %10, null
  br i1 %11, label %12, label %14

12:                                               ; preds = %4
  %13 = load ptr, ptr %7, align 8, !tbaa !117
  call void (ptr, i32, i32, ptr, ptr, ptr, ...) @IDAProcessError(ptr noundef null, i32 noundef -1, i32 noundef 1766, ptr noundef %13, ptr noundef @.str, ptr noundef @.str.1)
  store i32 -1, ptr %5, align 4
  br label %32

14:                                               ; preds = %4
  %15 = load ptr, ptr %6, align 8, !tbaa !3
  %16 = load ptr, ptr %8, align 8, !tbaa !119
  store ptr %15, ptr %16, align 8, !tbaa !11
  %17 = load ptr, ptr %8, align 8, !tbaa !119
  %18 = load ptr, ptr %17, align 8, !tbaa !11
  %19 = getelementptr inbounds nuw %struct.IDAMemRec, ptr %18, i32 0, i32 113
  %20 = load ptr, ptr %19, align 8, !tbaa !75
  %21 = icmp eq ptr %20, null
  br i1 %21, label %22, label %26

22:                                               ; preds = %14
  %23 = load ptr, ptr %8, align 8, !tbaa !119
  %24 = load ptr, ptr %23, align 8, !tbaa !11
  %25 = load ptr, ptr %7, align 8, !tbaa !117
  call void (ptr, i32, i32, ptr, ptr, ptr, ...) @IDAProcessError(ptr noundef %24, i32 noundef -2, i32 noundef 1773, ptr noundef %25, ptr noundef @.str, ptr noundef @.str.30)
  store i32 -2, ptr %5, align 4
  br label %32

26:                                               ; preds = %14
  %27 = load ptr, ptr %8, align 8, !tbaa !119
  %28 = load ptr, ptr %27, align 8, !tbaa !11
  %29 = getelementptr inbounds nuw %struct.IDAMemRec, ptr %28, i32 0, i32 113
  %30 = load ptr, ptr %29, align 8, !tbaa !75
  %31 = load ptr, ptr %9, align 8, !tbaa !121
  store ptr %30, ptr %31, align 8, !tbaa !45
  store i32 0, ptr %5, align 4
  br label %32

32:                                               ; preds = %26, %22, %12
  %33 = load i32, ptr %5, align 4
  ret i32 %33
}

; Function Attrs: nounwind uwtable
define i32 @IDAGetLinWorkSpace(ptr noundef %0, ptr noundef %1, ptr noundef %2) #0 {
  %4 = alloca i32, align 4
  %5 = alloca ptr, align 8
  %6 = alloca ptr, align 8
  %7 = alloca ptr, align 8
  %8 = alloca ptr, align 8
  %9 = alloca ptr, align 8
  %10 = alloca i64, align 8
  %11 = alloca i64, align 8
  %12 = alloca i64, align 8
  %13 = alloca i64, align 8
  %14 = alloca i32, align 4
  %15 = alloca i32, align 4
  store ptr %0, ptr %5, align 8, !tbaa !3
  store ptr %1, ptr %6, align 8, !tbaa !127
  store ptr %2, ptr %7, align 8, !tbaa !127
  call void @llvm.lifetime.start.p0(i64 8, ptr %8) #7
  call void @llvm.lifetime.start.p0(i64 8, ptr %9) #7
  call void @llvm.lifetime.start.p0(i64 8, ptr %10) #7
  call void @llvm.lifetime.start.p0(i64 8, ptr %11) #7
  call void @llvm.lifetime.start.p0(i64 8, ptr %12) #7
  call void @llvm.lifetime.start.p0(i64 8, ptr %13) #7
  call void @llvm.lifetime.start.p0(i64 4, ptr %14) #7
  %16 = load ptr, ptr %5, align 8, !tbaa !3
  %17 = call i32 @idaLs_AccessLMem(ptr noundef %16, ptr noundef @__func__.IDAGetLinWorkSpace, ptr noundef %8, ptr noundef %9)
  store i32 %17, ptr %14, align 4, !tbaa !20
  %18 = load i32, ptr %14, align 4, !tbaa !20
  %19 = icmp ne i32 %18, 0
  br i1 %19, label %20, label %22

20:                                               ; preds = %3
  %21 = load i32, ptr %14, align 4, !tbaa !20
  store i32 %21, ptr %4, align 4
  store i32 1, ptr %15, align 4
  br label %74

22:                                               ; preds = %3
  %23 = load ptr, ptr %6, align 8, !tbaa !127
  store i64 3, ptr %23, align 8, !tbaa !91
  %24 = load ptr, ptr %7, align 8, !tbaa !127
  store i64 33, ptr %24, align 8, !tbaa !91
  %25 = load ptr, ptr %8, align 8, !tbaa !11
  %26 = getelementptr inbounds nuw %struct.IDAMemRec, ptr %25, i32 0, i32 30
  %27 = load ptr, ptr %26, align 8, !tbaa !22
  %28 = getelementptr inbounds nuw %struct._generic_N_Vector, ptr %27, i32 0, i32 1
  %29 = load ptr, ptr %28, align 8, !tbaa !30
  %30 = getelementptr inbounds nuw %struct._generic_N_Vector_Ops, ptr %29, i32 0, i32 4
  %31 = load ptr, ptr %30, align 8, !tbaa !129
  %32 = icmp ne ptr %31, null
  br i1 %32, label %33, label %47

33:                                               ; preds = %22
  %34 = load ptr, ptr %8, align 8, !tbaa !11
  %35 = getelementptr inbounds nuw %struct.IDAMemRec, ptr %34, i32 0, i32 30
  %36 = load ptr, ptr %35, align 8, !tbaa !22
  call void @N_VSpace(ptr noundef %36, ptr noundef %10, ptr noundef %11)
  %37 = load i64, ptr %10, align 8, !tbaa !91
  %38 = mul nsw i64 3, %37
  %39 = load ptr, ptr %6, align 8, !tbaa !127
  %40 = load i64, ptr %39, align 8, !tbaa !91
  %41 = add nsw i64 %40, %38
  store i64 %41, ptr %39, align 8, !tbaa !91
  %42 = load i64, ptr %11, align 8, !tbaa !91
  %43 = mul nsw i64 3, %42
  %44 = load ptr, ptr %7, align 8, !tbaa !127
  %45 = load i64, ptr %44, align 8, !tbaa !91
  %46 = add nsw i64 %45, %43
  store i64 %46, ptr %44, align 8, !tbaa !91
  br label %47

47:                                               ; preds = %33, %22
  %48 = load ptr, ptr %9, align 8, !tbaa !45
  %49 = getelementptr inbounds nuw %struct.IDALsMemRec, ptr %48, i32 0, i32 5
  %50 = load ptr, ptr %49, align 8, !tbaa !47
  %51 = getelementptr inbounds nuw %struct._generic_SUNLinearSolver, ptr %50, i32 0, i32 1
  %52 = load ptr, ptr %51, align 8, !tbaa !13
  %53 = getelementptr inbounds nuw %struct._generic_SUNLinearSolver_Ops, ptr %52, i32 0, i32 12
  %54 = load ptr, ptr %53, align 8, !tbaa !130
  %55 = icmp ne ptr %54, null
  br i1 %55, label %56, label %73

56:                                               ; preds = %47
  %57 = load ptr, ptr %9, align 8, !tbaa !45
  %58 = getelementptr inbounds nuw %struct.IDALsMemRec, ptr %57, i32 0, i32 5
  %59 = load ptr, ptr %58, align 8, !tbaa !47
  %60 = call i32 @SUNLinSolSpace(ptr noundef %59, ptr noundef %12, ptr noundef %13)
  store i32 %60, ptr %14, align 4, !tbaa !20
  %61 = load i32, ptr %14, align 4, !tbaa !20
  %62 = icmp eq i32 %61, 0
  br i1 %62, label %63, label %72

63:                                               ; preds = %56
  %64 = load i64, ptr %12, align 8, !tbaa !91
  %65 = load ptr, ptr %6, align 8, !tbaa !127
  %66 = load i64, ptr %65, align 8, !tbaa !91
  %67 = add nsw i64 %66, %64
  store i64 %67, ptr %65, align 8, !tbaa !91
  %68 = load i64, ptr %13, align 8, !tbaa !91
  %69 = load ptr, ptr %7, align 8, !tbaa !127
  %70 = load i64, ptr %69, align 8, !tbaa !91
  %71 = add nsw i64 %70, %68
  store i64 %71, ptr %69, align 8, !tbaa !91
  br label %72

72:                                               ; preds = %63, %56
  br label %73

73:                                               ; preds = %72, %47
  store i32 0, ptr %4, align 4
  store i32 1, ptr %15, align 4
  br label %74

74:                                               ; preds = %73, %20
  call void @llvm.lifetime.end.p0(i64 4, ptr %14) #7
  call void @llvm.lifetime.end.p0(i64 8, ptr %13) #7
  call void @llvm.lifetime.end.p0(i64 8, ptr %12) #7
  call void @llvm.lifetime.end.p0(i64 8, ptr %11) #7
  call void @llvm.lifetime.end.p0(i64 8, ptr %10) #7
  call void @llvm.lifetime.end.p0(i64 8, ptr %9) #7
  call void @llvm.lifetime.end.p0(i64 8, ptr %8) #7
  %75 = load i32, ptr %4, align 4
  ret i32 %75
}