; Function Attrs: nounwind uwtable
define range(i32 -2, 1) i32 @IDAGetLinWorkSpace(ptr noundef %0, ptr noundef captures(none) %1, ptr noundef captures(none) %2) local_unnamed_addr #0 {
  %4 = alloca i64, align 8
  %5 = alloca i64, align 8
  %6 = alloca i64, align 8
  %7 = alloca i64, align 8
  call void @llvm.lifetime.start.p0(i64 8, ptr nonnull %4) #13
  call void @llvm.lifetime.start.p0(i64 8, ptr nonnull %5) #13
  call void @llvm.lifetime.start.p0(i64 8, ptr nonnull %6) #13
  call void @llvm.lifetime.start.p0(i64 8, ptr nonnull %7) #13
  %8 = icmp eq ptr %0, null
  br i1 %8, label %9, label %10

9:                                                ; preds = %3
  tail call void (ptr, i32, i32, ptr, ptr, ptr, ...) @IDAProcessError(ptr noundef null, i32 noundef -1, i32 noundef 1766, ptr noundef nonnull @__func__.IDAGetLinWorkSpace, ptr noundef nonnull @.str, ptr noundef nonnull @.str.1) #13
  br label %idaLs_AccessLMem.exit.thread

10:                                               ; preds = %3
  %11 = getelementptr inbounds nuw i8, ptr %0, i64 1048
  %12 = load ptr, ptr %11, align 8, !tbaa !65
  %13 = icmp eq ptr %12, null
  br i1 %13, label %14, label %idaLs_AccessLMem.exit

14:                                               ; preds = %10
  tail call void (ptr, i32, i32, ptr, ptr, ptr, ...) @IDAProcessError(ptr noundef nonnull %0, i32 noundef -2, i32 noundef 1773, ptr noundef nonnull @__func__.IDAGetLinWorkSpace, ptr noundef nonnull @.str, ptr noundef nonnull @.str.30) #13
  br label %idaLs_AccessLMem.exit.thread

idaLs_AccessLMem.exit:                            ; preds = %10
  store i64 3, ptr %1, align 8, !tbaa !114
  store i64 33, ptr %2, align 8, !tbaa !114
  %15 = getelementptr inbounds nuw i8, ptr %0, i64 464
  %16 = load ptr, ptr %15, align 8, !tbaa !13
  %17 = getelementptr inbounds nuw i8, ptr %16, i64 8
  %18 = load ptr, ptr %17, align 8, !tbaa !22
  %19 = getelementptr inbounds nuw i8, ptr %18, i64 32
  %20 = load ptr, ptr %19, align 8, !tbaa !115
  %.not11 = icmp eq ptr %20, null
  br i1 %.not11, label %30, label %21

21:                                               ; preds = %idaLs_AccessLMem.exit
  call void @N_VSpace(ptr noundef nonnull %16, ptr noundef nonnull %4, ptr noundef nonnull %5) #13
  %22 = load i64, ptr %4, align 8, !tbaa !114
  %23 = mul nsw i64 %22, 3
  %24 = load i64, ptr %1, align 8, !tbaa !114
  %25 = add nsw i64 %24, %23
  store i64 %25, ptr %1, align 8, !tbaa !114
  %26 = load i64, ptr %5, align 8, !tbaa !114
  %27 = mul nsw i64 %26, 3
  %28 = load i64, ptr %2, align 8, !tbaa !114
  %29 = add nsw i64 %28, %27
  store i64 %29, ptr %2, align 8, !tbaa !114
  br label %30

30:                                               ; preds = %21, %idaLs_AccessLMem.exit
  %31 = getelementptr inbounds nuw i8, ptr %12, i64 32
  %32 = load ptr, ptr %31, align 8, !tbaa !37
  %33 = getelementptr inbounds nuw i8, ptr %32, i64 8
  %34 = load ptr, ptr %33, align 8, !tbaa !3
  %35 = getelementptr inbounds nuw i8, ptr %34, i64 96
  %36 = load ptr, ptr %35, align 8, !tbaa !116
  %.not12 = icmp eq ptr %36, null
  br i1 %.not12, label %idaLs_AccessLMem.exit.thread, label %37

37:                                               ; preds = %30
  %38 = call i32 @SUNLinSolSpace(ptr noundef nonnull %32, ptr noundef nonnull %6, ptr noundef nonnull %7) #13
  %39 = icmp eq i32 %38, 0
  br i1 %39, label %40, label %idaLs_AccessLMem.exit.thread

40:                                               ; preds = %37
  %41 = load i64, ptr %6, align 8, !tbaa !114
  %42 = load i64, ptr %1, align 8, !tbaa !114
  %43 = add nsw i64 %42, %41
  store i64 %43, ptr %1, align 8, !tbaa !114
  %44 = load i64, ptr %7, align 8, !tbaa !114
  %45 = load i64, ptr %2, align 8, !tbaa !114
  %46 = add nsw i64 %45, %44
  store i64 %46, ptr %2, align 8, !tbaa !114
  br label %idaLs_AccessLMem.exit.thread

idaLs_AccessLMem.exit.thread:                     ; preds = %14, %9, %30, %40, %37
  %.0 = phi i32 [ 0, %37 ], [ 0, %40 ], [ 0, %30 ], [ -2, %14 ], [ -1, %9 ]
  call void @llvm.lifetime.end.p0(i64 8, ptr nonnull %7) #13
  call void @llvm.lifetime.end.p0(i64 8, ptr nonnull %6) #13
  call void @llvm.lifetime.end.p0(i64 8, ptr nonnull %5) #13
  call void @llvm.lifetime.end.p0(i64 8, ptr nonnull %4) #13
  ret i32 %.0
}